#include <math.h>
#include <stdio.h>
#include <stdlib.h>
#include <string.h>

           
void print(int n)
{
      int p=n;int i;
      if(p/10!=0)
      {
         for(i=0;p/10!=0;i++)
         {
                         int temp=p/10;
                         p=p-10*temp;
         }
         printf("%d",p);
         n=n/10;
         print(n);
      }
      else
      printf("%d",n);
}
     


main()
{
      int number,i;
      scanf("%d",&number);
      print(number);
    }

